; Function Attrs: mustprogress nofree nounwind uwtable
define void @_Z14gmx_vec4_printP8_IO_FILEPKcPf(ptr noundef %0, ptr noundef %1, ptr nocapture noundef readonly %2) local_unnamed_addr #10 {
  %.not = icmp eq ptr %0, null
  br i1 %.not, label %12, label %4

4:                                                ; preds = %3
  %5 = tail call i32 (ptr, ptr, ...) @fprintf(ptr noundef nonnull %0, ptr noundef nonnull @.str.2, ptr noundef %1) #14
  br label %6

6:                                                ; preds = %4, %6
  %indvars.iv = phi i64 [ 0, %4 ], [ %indvars.iv.next, %6 ]
  %7 = getelementptr inbounds float, ptr %2, i64 %indvars.iv
  %8 = load float, ptr %7, align 4
  %9 = fpext float %8 to double
  %10 = tail call i32 (ptr, ptr, ...) @fprintf(ptr noundef nonnull %0, ptr noundef nonnull @.str.4, double noundef %9) #14
  %indvars.iv.next = add nuw nsw i64 %indvars.iv, 1
  %exitcond.not = icmp eq i64 %indvars.iv.next, 4
  br i1 %exitcond.not, label %11, label %6, !llvm.loop !16

11:                                               ; preds = %6
  %fputc = tail call i32 @fputc(i32 10, ptr nonnull %0)
  br label %12

12:                                               ; preds = %11, %3
  ret void
}